target datalayout = "e-m:e-p270:32:32-p271:32:32-p272:64:64-i64:64-i128:128-f80:128-n8:16:32:64-S128"
target triple = "x86_64-pc-linux-gnu"

%class.LIR_Assembler = type { ptr, ptr, ptr, ptr, ptr, ptr, i32, i32, %class.Label }
%class.Label = type <{ i32, [4 x i32], i32, ptr, i8, [7 x i8] }>
%class.GrowableArrayBase = type { i32, i32 }
%class.Compilation = type { ptr, i32, i32, ptr, ptr, ptr, ptr, ptr, i32, ptr, i32, ptr, ptr, i8, i8, i8, i8, i8, i8, i8, i8, i8, ptr, ptr, i8, ptr, %class.ExceptionHandlerTable, %class.ImplicitExceptionTable, ptr, %class.CodeOffsets, %class.CodeBuffer, i8, i32, i32, ptr }
%class.ExceptionHandlerTable = type <{ ptr, i32, i32, %class.ReallocMark, [7 x i8] }>
%class.ReallocMark = type { i8 }
%class.ImplicitExceptionTable = type <{ i32, i32, ptr, %class.ReallocMark, [7 x i8] }>
%class.CodeOffsets = type { [8 x i32] }
%class.CodeBuffer = type { ptr, %class.CodeSection, %class.CodeSection, %class.CodeSection, ptr, ptr, ptr, i32, ptr, %class.OopRecorder, ptr, ptr, ptr, ptr, ptr, i8, i32 }
%class.CodeSection = type { ptr, ptr, ptr, ptr, ptr, ptr, ptr, ptr, i8, i8, i32, i8, ptr }
%class.OopRecorder = type { %class.ValueRecorder, %class.ValueRecorder.3, ptr }
%class.ValueRecorder = type <{ ptr, ptr, ptr, ptr, i8, [7 x i8] }>
%class.ValueRecorder.3 = type <{ ptr, ptr, ptr, ptr, i8, [7 x i8] }>
%class.AbstractAssembler = type { ptr, ptr, ptr }
%class.GrowableArrayView.7 = type { %class.GrowableArrayBase, ptr }

@.str = private unnamed_addr constant [20 x i8] c"CodeBuffer overflow\00", align 1

; Function Attrs: mustprogress nounwind uwtable
define linkonce_odr hidden noundef zeroext i1 @_ZNK11Compilation10bailed_outEv(ptr noundef nonnull align 8 dereferenceable(704) %0) #1 comdat align 2 {
  %2 = alloca ptr, align 8
  store ptr %0, ptr %2, align 8
  %3 = load ptr, ptr %2, align 8
  %4 = getelementptr inbounds %class.Compilation, ptr %3, i32 0, i32 22
  %5 = load ptr, ptr %4, align 8
  %6 = icmp ne ptr %5, null
  ret i1 %6
}

; Function Attrs: mustprogress nounwind uwtable
define linkonce_odr hidden noundef ptr @_ZNK13LIR_Assembler11compilationEv(ptr noundef nonnull align 8 dereferenceable(96) %0) #1 comdat align 2 {
  %2 = alloca ptr, align 8
  store ptr %0, ptr %2, align 8
  %3 = load ptr, ptr %2, align 8
  %4 = getelementptr inbounds %class.LIR_Assembler, ptr %3, i32 0, i32 2
  %5 = load ptr, ptr %4, align 8
  ret ptr %5
}

; Function Attrs: mustprogress nounwind uwtable
define linkonce_odr hidden void @_ZNK13LIR_Assembler7bailoutEPKc(ptr noundef nonnull align 8 dereferenceable(96) %0, ptr noundef %1) #1 comdat align 2 {
  %3 = alloca ptr, align 8
  %4 = alloca ptr, align 8
  store ptr %0, ptr %3, align 8
  store ptr %1, ptr %4, align 8
  %5 = load ptr, ptr %3, align 8
  %6 = call noundef ptr @_ZNK13LIR_Assembler11compilationEv(ptr noundef nonnull align 8 dereferenceable(96) %5)
  %7 = load ptr, ptr %4, align 8
  call void @_ZN11Compilation7bailoutEPKc(ptr noundef nonnull align 8 dereferenceable(704) %6, ptr noundef %7)
  ret void
}

; Function Attrs: mustprogress nounwind uwtable
define linkonce_odr hidden noundef i32 @_ZNK11CodeSection9remainingEv(ptr noundef nonnull align 8 dereferenceable(88) %0) #1 comdat align 2 {
  %2 = alloca ptr, align 8
  store ptr %0, ptr %2, align 8
  %3 = load ptr, ptr %2, align 8
  %4 = getelementptr inbounds %class.CodeSection, ptr %3, i32 0, i32 3
  %5 = load ptr, ptr %4, align 8
  %6 = getelementptr inbounds %class.CodeSection, ptr %3, i32 0, i32 2
  %7 = load ptr, ptr %6, align 8
  %8 = ptrtoint ptr %5 to i64
  %9 = ptrtoint ptr %7 to i64
  %10 = sub i64 %8, %9
  %11 = trunc i64 %10 to i32
  ret i32 %11
}

; Function Attrs: mustprogress nounwind uwtable
define linkonce_odr hidden noundef ptr @_ZNK17AbstractAssembler12code_sectionEv(ptr noundef nonnull align 8 dereferenceable(24) %0) #1 comdat align 2 {
  %2 = alloca ptr, align 8
  store ptr %0, ptr %2, align 8
  %3 = load ptr, ptr %2, align 8
  %4 = getelementptr inbounds %class.AbstractAssembler, ptr %3, i32 0, i32 1
  %5 = load ptr, ptr %4, align 8
  ret ptr %5
}

; Function Attrs: mustprogress nounwind uwtable
define linkonce_odr hidden noundef zeroext i1 @_ZNK13LIR_Assembler10bailed_outEv(ptr noundef nonnull align 8 dereferenceable(96) %0) #1 comdat align 2 {
  %2 = alloca ptr, align 8
  store ptr %0, ptr %2, align 8
  %3 = load ptr, ptr %2, align 8
  %4 = call noundef ptr @_ZNK13LIR_Assembler11compilationEv(ptr noundef nonnull align 8 dereferenceable(96) %3)
  %5 = call noundef zeroext i1 @_ZNK11Compilation10bailed_outEv(ptr noundef nonnull align 8 dereferenceable(704) %4)
  ret i1 %5
}

; Function Attrs: mustprogress nounwind uwtable
define hidden void @_ZN13LIR_Assembler15check_codespaceEv(ptr noundef nonnull align 8 dereferenceable(96) %0) #1 align 2 {
  %2 = alloca ptr, align 8
  %3 = alloca ptr, align 8
  store ptr %0, ptr %2, align 8
  %4 = load ptr, ptr %2, align 8
  %5 = getelementptr inbounds %class.LIR_Assembler, ptr %4, i32 0, i32 0
  %6 = load ptr, ptr %5, align 8
  %7 = call noundef ptr @_ZNK17AbstractAssembler12code_sectionEv(ptr noundef nonnull align 8 dereferenceable(24) %6)
  store ptr %7, ptr %3, align 8
  %8 = load ptr, ptr %3, align 8
  %9 = call noundef i32 @_ZNK11CodeSection9remainingEv(ptr noundef nonnull align 8 dereferenceable(88) %8)
  %10 = icmp slt i32 %9, 2048
  br i1 %10, label %11, label %12

11:                                               ; preds = %1
  call void @_ZNK13LIR_Assembler7bailoutEPKc(ptr noundef nonnull align 8 dereferenceable(96) %4, ptr noundef @.str)
  br label %12

12:                                               ; preds = %11, %1
  ret void
}

; Function Attrs: mustprogress nounwind uwtable
define linkonce_odr hidden noundef nonnull align 8 dereferenceable(8) ptr @_ZN17GrowableArrayViewIP8CodeStubE2atEi(ptr noundef nonnull align 8 dereferenceable(16) %0, i32 noundef %1) #1 comdat align 2 {
  %3 = alloca ptr, align 8
  %4 = alloca i32, align 4
  store ptr %0, ptr %3, align 8
  store i32 %1, ptr %4, align 4
  %5 = load ptr, ptr %3, align 8
  %6 = getelementptr inbounds %class.GrowableArrayView.7, ptr %5, i32 0, i32 1
  %7 = load ptr, ptr %6, align 8
  %8 = load i32, ptr %4, align 4
  %9 = sext i32 %8 to i64
  %10 = getelementptr inbounds ptr, ptr %7, i64 %9
  ret ptr %10
}

; Function Attrs: mustprogress nounwind uwtable
define linkonce_odr hidden noundef i32 @_ZNK17GrowableArrayBase6lengthEv(ptr noundef nonnull align 4 dereferenceable(8) %0) #1 comdat align 2 {
  %2 = alloca ptr, align 8
  store ptr %0, ptr %2, align 8
  %3 = load ptr, ptr %2, align 8
  %4 = getelementptr inbounds %class.GrowableArrayBase, ptr %3, i32 0, i32 0
  %5 = load i32, ptr %4, align 4
  ret i32 %5
}

; Function Attrs: mustprogress nounwind uwtable
define hidden void @_ZN13LIR_Assembler10emit_stubsEP12CodeStubList(ptr noundef nonnull align 8 dereferenceable(96) %0, ptr noundef %1) #1 align 2 {
  %3 = alloca ptr, align 8
  %4 = alloca ptr, align 8
  %5 = alloca i32, align 4
  %6 = alloca ptr, align 8
  store ptr %0, ptr %3, align 8
  store ptr %1, ptr %4, align 8
  %7 = load ptr, ptr %3, align 8
  store i32 0, ptr %5, align 4
  br label %8

8:                                                ; preds = %25, %2
  %9 = load i32, ptr %5, align 4
  %10 = load ptr, ptr %4, align 8
  %11 = call noundef i32 @_ZNK17GrowableArrayBase6lengthEv(ptr noundef nonnull align 4 dereferenceable(8) %10)
  %12 = icmp slt i32 %9, %11
  br i1 %12, label %13, label %28

13:                                               ; preds = %8
  %14 = load ptr, ptr %4, align 8
  %15 = load i32, ptr %5, align 4
  %16 = call noundef nonnull align 8 dereferenceable(8) ptr @_ZN17GrowableArrayViewIP8CodeStubE2atEi(ptr noundef nonnull align 8 dereferenceable(16) %14, i32 noundef %15)
  %17 = load ptr, ptr %16, align 8
  store ptr %17, ptr %6, align 8
  call void @_ZN13LIR_Assembler15check_codespaceEv(ptr noundef nonnull align 8 dereferenceable(96) %7)
  %18 = call noundef zeroext i1 @_ZNK13LIR_Assembler10bailed_outEv(ptr noundef nonnull align 8 dereferenceable(96) %7)
  br i1 %18, label %19, label %20

19:                                               ; preds = %13
  br label %28

20:                                               ; preds = %13
  %21 = load ptr, ptr %6, align 8
  %22 = load ptr, ptr %21, align 8
  %23 = getelementptr inbounds ptr, ptr %22, i64 0
  %24 = load ptr, ptr %23, align 8
  call void %24(ptr noundef nonnull align 8 dereferenceable(88) %21, ptr noundef %7)
  br label %25

25:                                               ; preds = %20
  %26 = load i32, ptr %5, align 4
  %27 = add nsw i32 %26, 1
  store i32 %27, ptr %5, align 4
  br label %8, !llvm.loop !8

28:                                               ; preds = %19, %8
  ret void
}

; Function Attrs: mustprogress nounwind uwtable
define hidden void @_ZN13LIR_Assembler20emit_slow_case_stubsEv(ptr noundef nonnull align 8 dereferenceable(96) %0) #1 align 2 {
  %2 = alloca ptr, align 8
  store ptr %0, ptr %2, align 8
  %3 = load ptr, ptr %2, align 8
  %4 = getelementptr inbounds %class.LIR_Assembler, ptr %3, i32 0, i32 1
  %5 = load ptr, ptr %4, align 8
  call void @_ZN13LIR_Assembler10emit_stubsEP12CodeStubList(ptr noundef nonnull align 8 dereferenceable(96) %3, ptr noundef %5)
  ret void
}