; Function Attrs: mustprogress nounwind uwtable
define hidden void @_ZN13LIR_Assembler20emit_slow_case_stubsEv(ptr noundef nonnull align 8 dereferenceable(96) %0) local_unnamed_addr #0 align 2 {
  %2 = getelementptr inbounds i8, ptr %0, i64 8
  %3 = load ptr, ptr %2, align 8
  %4 = load i32, ptr %3, align 4
  %5 = icmp sgt i32 %4, 0
  br i1 %5, label %.lr.ph.i, label %_ZN13LIR_Assembler10emit_stubsEP12CodeStubList.exit

.lr.ph.i:                                         ; preds = %1
  %6 = getelementptr inbounds i8, ptr %3, i64 8
  %7 = getelementptr inbounds i8, ptr %0, i64 16
  br label %8

8:                                                ; preds = %29, %.lr.ph.i
  %indvars.iv.i = phi i64 [ 0, %.lr.ph.i ], [ %indvars.iv.next.i, %29 ]
  %9 = load ptr, ptr %6, align 8
  %10 = getelementptr inbounds ptr, ptr %9, i64 %indvars.iv.i
  %11 = load ptr, ptr %10, align 8
  %12 = load ptr, ptr %0, align 8
  %13 = getelementptr inbounds i8, ptr %12, i64 8
  %14 = load ptr, ptr %13, align 8
  %15 = getelementptr inbounds i8, ptr %14, i64 24
  %16 = load ptr, ptr %15, align 8
  %17 = getelementptr inbounds i8, ptr %14, i64 16
  %18 = load ptr, ptr %17, align 8
  %19 = ptrtoint ptr %16 to i64
  %20 = ptrtoint ptr %18 to i64
  %21 = sub i64 %19, %20
  %22 = trunc i64 %21 to i32
  %23 = icmp slt i32 %22, 2048
  br i1 %23, label %24, label %_ZN13LIR_Assembler15check_codespaceEv.exit.i

24:                                               ; preds = %8
  %25 = load ptr, ptr %7, align 8
  tail call void @_ZN11Compilation7bailoutEPKc(ptr noundef nonnull align 8 dereferenceable(704) %25, ptr noundef nonnull @.str) #11
  br label %_ZN13LIR_Assembler15check_codespaceEv.exit.i

_ZN13LIR_Assembler15check_codespaceEv.exit.i:     ; preds = %24, %8
  %26 = load ptr, ptr %7, align 8
  %27 = getelementptr inbounds i8, ptr %26, i64 112
  %28 = load ptr, ptr %27, align 8
  %.not.i = icmp eq ptr %28, null
  br i1 %.not.i, label %29, label %_ZN13LIR_Assembler10emit_stubsEP12CodeStubList.exit

29:                                               ; preds = %_ZN13LIR_Assembler15check_codespaceEv.exit.i
  %30 = load ptr, ptr %11, align 8
  %31 = load ptr, ptr %30, align 8
  tail call void %31(ptr noundef nonnull align 8 dereferenceable(88) %11, ptr noundef nonnull %0) #11
  %indvars.iv.next.i = add nuw nsw i64 %indvars.iv.i, 1
  %32 = load i32, ptr %3, align 4
  %33 = sext i32 %32 to i64
  %34 = icmp slt i64 %indvars.iv.next.i, %33
  br i1 %34, label %8, label %_ZN13LIR_Assembler10emit_stubsEP12CodeStubList.exit, !llvm.loop !9

_ZN13LIR_Assembler10emit_stubsEP12CodeStubList.exit: ; preds = %_ZN13LIR_Assembler15check_codespaceEv.exit.i, %29, %1
  ret void
}